; Function Attrs: mustprogress uwtable
define noundef nonnull align 8 dereferenceable(8) ptr @_ZN19OpenColorIO_v2_5devlsERSoRKNS_12CDLTransformE(ptr noundef nonnull returned align 8 dereferenceable(8) %0, ptr noundef nonnull align 8 dereferenceable(8) %1) local_unnamed_addr #3 {
  %3 = alloca [9 x double], align 16
  call void @llvm.lifetime.start.p0(i64 72, ptr nonnull %3) #26
  %4 = load ptr, ptr %1, align 8, !tbaa !3
  %5 = getelementptr inbounds nuw i8, ptr %4, i64 144
  %6 = load ptr, ptr %5, align 8
  call void %6(ptr noundef nonnull align 8 dereferenceable(8) %1, ptr noundef nonnull %3)
  %7 = call noundef nonnull align 8 dereferenceable(8) ptr @_ZSt16__ostream_insertIcSt11char_traitsIcEERSt13basic_ostreamIT_T0_ES6_PKS3_l(ptr noundef nonnull align 8 dereferenceable(8) %0, ptr noundef nonnull @.str.14, i64 noundef 13)
  %8 = call noundef nonnull align 8 dereferenceable(8) ptr @_ZSt16__ostream_insertIcSt11char_traitsIcEERSt13basic_ostreamIT_T0_ES6_PKS3_l(ptr noundef nonnull align 8 dereferenceable(8) %0, ptr noundef nonnull @.str.15, i64 noundef 11)
  %9 = load ptr, ptr %1, align 8, !tbaa !3
  %10 = getelementptr inbounds nuw i8, ptr %9, i64 8
  %11 = load ptr, ptr %10, align 8
  %12 = call noundef i32 %11(ptr noundef nonnull align 8 dereferenceable(8) %1) #26
  %13 = call noundef ptr @_ZN19OpenColorIO_v2_5dev26TransformDirectionToStringENS_18TransformDirectionE(i32 noundef %12)
  %.not.i = icmp eq ptr %13, null
  br i1 %.not.i, label %14, label %22

14:                                               ; preds = %2
  %15 = load ptr, ptr %0, align 8, !tbaa !3
  %16 = getelementptr i8, ptr %15, i64 -24
  %17 = load i64, ptr %16, align 8
  %18 = getelementptr inbounds i8, ptr %0, i64 %17
  %19 = getelementptr inbounds nuw i8, ptr %18, i64 32
  %20 = load i32, ptr %19, align 8, !tbaa !90
  %21 = or i32 %20, 1
  call void @_ZNSt9basic_iosIcSt11char_traitsIcEE5clearESt12_Ios_Iostate(ptr noundef nonnull align 8 dereferenceable(264) %18, i32 noundef %21)
  br label %_ZStlsISt11char_traitsIcEERSt13basic_ostreamIcT_ES5_PKc.exit

22:                                               ; preds = %2
  %23 = call noundef i64 @strlen(ptr noundef nonnull dereferenceable(1) %13) #26
  %24 = call noundef nonnull align 8 dereferenceable(8) ptr @_ZSt16__ostream_insertIcSt11char_traitsIcEERSt13basic_ostreamIT_T0_ES6_PKS3_l(ptr noundef nonnull align 8 dereferenceable(8) %0, ptr noundef nonnull %13, i64 noundef %23)
  br label %_ZStlsISt11char_traitsIcEERSt13basic_ostreamIcT_ES5_PKc.exit

_ZStlsISt11char_traitsIcEERSt13basic_ostreamIcT_ES5_PKc.exit: ; preds = %14, %22
  %25 = call noundef nonnull align 8 dereferenceable(8) ptr @_ZSt16__ostream_insertIcSt11char_traitsIcEERSt13basic_ostreamIT_T0_ES6_PKS3_l(ptr noundef nonnull align 8 dereferenceable(8) %0, ptr noundef nonnull @.str.16, i64 noundef 6)
  br label %51

26:                                               ; preds = %54
  %27 = call noundef nonnull align 8 dereferenceable(8) ptr @_ZSt16__ostream_insertIcSt11char_traitsIcEERSt13basic_ostreamIT_T0_ES6_PKS3_l(ptr noundef nonnull align 8 dereferenceable(8) %0, ptr noundef nonnull @.str.18, i64 noundef 6)
  %28 = load ptr, ptr %1, align 8, !tbaa !3
  %29 = getelementptr inbounds nuw i8, ptr %28, i64 160
  %30 = load ptr, ptr %29, align 8
  %31 = call noundef double %30(ptr noundef nonnull align 8 dereferenceable(8) %1)
  %32 = call noundef nonnull align 8 dereferenceable(8) ptr @_ZNSo9_M_insertIdEERSoT_(ptr noundef nonnull align 8 dereferenceable(8) %0, double noundef %31)
  %33 = call noundef nonnull align 8 dereferenceable(8) ptr @_ZSt16__ostream_insertIcSt11char_traitsIcEERSt13basic_ostreamIT_T0_ES6_PKS3_l(ptr noundef nonnull align 8 dereferenceable(8) %0, ptr noundef nonnull @.str.19, i64 noundef 8)
  %34 = load ptr, ptr %1, align 8, !tbaa !3
  %35 = getelementptr inbounds nuw i8, ptr %34, i64 80
  %36 = load ptr, ptr %35, align 8
  %37 = call noundef i32 %36(ptr noundef nonnull align 8 dereferenceable(8) %1)
  %38 = call noundef ptr @_ZN19OpenColorIO_v2_5dev16CDLStyleToStringENS_8CDLStyleE(i32 noundef %37)
  %.not.i16 = icmp eq ptr %38, null
  br i1 %.not.i16, label %39, label %47

39:                                               ; preds = %26
  %40 = load ptr, ptr %0, align 8, !tbaa !3
  %41 = getelementptr i8, ptr %40, i64 -24
  %42 = load i64, ptr %41, align 8
  %43 = getelementptr inbounds i8, ptr %0, i64 %42
  %44 = getelementptr inbounds nuw i8, ptr %43, i64 32
  %45 = load i32, ptr %44, align 8, !tbaa !90
  %46 = or i32 %45, 1
  call void @_ZNSt9basic_iosIcSt11char_traitsIcEE5clearESt12_Ios_Iostate(ptr noundef nonnull align 8 dereferenceable(264) %43, i32 noundef %46)
  br label %_ZStlsISt11char_traitsIcEERSt13basic_ostreamIcT_ES5_PKc.exit17

47:                                               ; preds = %26
  %48 = call noundef i64 @strlen(ptr noundef nonnull dereferenceable(1) %38) #26
  %49 = call noundef nonnull align 8 dereferenceable(8) ptr @_ZSt16__ostream_insertIcSt11char_traitsIcEERSt13basic_ostreamIT_T0_ES6_PKS3_l(ptr noundef nonnull align 8 dereferenceable(8) %0, ptr noundef nonnull %38, i64 noundef %48)
  br label %_ZStlsISt11char_traitsIcEERSt13basic_ostreamIcT_ES5_PKc.exit17

_ZStlsISt11char_traitsIcEERSt13basic_ostreamIcT_ES5_PKc.exit17: ; preds = %39, %47
  %50 = call noundef nonnull align 8 dereferenceable(8) ptr @_ZSt16__ostream_insertIcSt11char_traitsIcEERSt13basic_ostreamIT_T0_ES6_PKS3_l(ptr noundef nonnull align 8 dereferenceable(8) %0, ptr noundef nonnull @.str.20, i64 noundef 1)
  call void @llvm.lifetime.end.p0(i64 72, ptr nonnull %3) #26
  ret ptr %0

51:                                               ; preds = %_ZStlsISt11char_traitsIcEERSt13basic_ostreamIcT_ES5_PKc.exit, %54
  %indvars.iv = phi i64 [ 0, %_ZStlsISt11char_traitsIcEERSt13basic_ostreamIcT_ES5_PKc.exit ], [ %indvars.iv.next, %54 ]
  %.not = icmp eq i64 %indvars.iv, 0
  br i1 %.not, label %54, label %52

52:                                               ; preds = %51
  %53 = call noundef nonnull align 8 dereferenceable(8) ptr @_ZSt16__ostream_insertIcSt11char_traitsIcEERSt13basic_ostreamIT_T0_ES6_PKS3_l(ptr noundef nonnull align 8 dereferenceable(8) %0, ptr noundef nonnull @.str.17, i64 noundef 1)
  br label %54

54:                                               ; preds = %52, %51
  %55 = getelementptr inbounds nuw [9 x double], ptr %3, i64 0, i64 %indvars.iv
  %56 = load double, ptr %55, align 8, !tbaa !82
  %57 = call noundef nonnull align 8 dereferenceable(8) ptr @_ZNSo9_M_insertIdEERSoT_(ptr noundef nonnull align 8 dereferenceable(8) %0, double noundef %56)
  %indvars.iv.next = add nuw nsw i64 %indvars.iv, 1
  %exitcond.not = icmp eq i64 %indvars.iv.next, 9
  br i1 %exitcond.not, label %26, label %51, !llvm.loop !99
}